(dp0
Vwatched <dobj>
p1
(dp2
S'type'
p3
S'dobj'
p4
sS'freq'
p5
I24
sS'subj_freq'
p6
I24
sS'display'
p7
Vwatched
p8
sS'prob'
p9
F1.0
ssV<subj> tracks
p10
(dp11
S'subj_freq'
p12
I9
sS'freq'
p13
I9
sS'type'
p14
S'subj'
p15
sS'display'
p16
Vtracks
p17
sS'prob'
p18
F1.0
ssVimagined <dobj>
p19
(dp20
g12
I9
sg13
I9
sg14
S'dobj'
p21
sg16
Vimagined
p22
sg18
F1.0
ssVbring <dobj>
p23
(dp24
g12
I9
sg13
I9
sg14
g21
sg16
Vbring
p25
sg18
F1.0
ssVfeatured <dobj>
p26
(dp27
g12
I9
sg13
I9
sg14
g21
sg16
Vfeatured
p28
sg18
F1.0
ssV<subj> posted people
p29
(dp30
g3
S'subj'
p31
sg5
I27
sg6
I27
sg7
Vposted people
p32
sg9
F1.0
ssV<subj> get seat
p33
(dp34
g12
I9
sg13
I9
sg14
g15
sg16
Vget seat
p35
sg18
F1.0
ssS"<subj> 'm"
p36
(dp37
S'type'
p38
S'subj'
p39
sS'freq'
p40
I1
sS'subj_freq'
p41
I1
sS'display'
p42
S"'m"
p43
sS'prob'
p44
F1.0
ssVdid <dobj>
p45
(dp46
g3
g4
sg5
I24
sg6
I24
sg7
Vdid
p47
sg9
F1.0
ssVkeep <dobj>
p48
(dp49
g12
I9
sg13
I9
sg14
g21
sg16
Vkeep
p50
sg18
F1.0
ssV<subj> featured
p51
(dp52
g12
I9
sg13
I9
sg14
g15
sg16
Vfeatured
p53
sg18
F1.0
ssS'<subj> found'
p54
(dp55
S'type'
p56
S'subj'
p57
sS'freq'
p58
I4
sS'subj_freq'
p59
I4
sS'display'
p60
S'found'
p61
sS'prob'
p62
F1.0
ssV<subj> wait
p63
(dp64
g12
I7
sg13
I7
sg14
g15
sg16
Vwait
p65
sg18
F1.0
ssVconveyed <dobj>
p66
(dp67
g12
I9
sg13
I9
sg14
g21
sg16
Vconveyed
p68
sg18
F1.0
ssVCalled <dobj>
p69
(dp70
g12
I23
sg13
I23
sg14
g21
sg16
VCalled
p71
sg18
F1.0
ssVwait <dobj>
p72
(dp73
g12
I7
sg13
I7
sg14
g21
sg16
Vwait
p74
sg18
F1.0
ssVforces <dobj>
p75
(dp76
g3
g4
sg5
I24
sg6
I24
sg7
Vforces
p77
sg9
F1.0
ssV<subj> did
p78
(dp79
g3
g31
sg5
I24
sg6
I24
sg7
Vdid
p80
sg9
F1.0
ssV<subj> blown
p81
(dp82
g3
g31
sg5
I27
sg6
I27
sg7
Vblown
p83
sg9
F1.0
ssS"'m <dobj>"
p84
(dp85
g38
S'dobj'
p86
sg40
I1
sg41
I1
sg42
S"'m"
p87
sg44
F1.0
ssVposted <dobj>
p88
(dp89
g3
g4
sg5
I27
sg6
I27
sg7
Vposted
p90
sg9
F1.0
ssVreleased <dobj>
p91
(dp92
g12
I9
sg13
I9
sg14
g21
sg16
Vreleased
p93
sg18
F1.0
ssV<subj> imagined worlds
p94
(dp95
g12
I9
sg13
I9
sg14
g15
sg16
Vimagined worlds
p96
sg18
F1.0
ssVblown <dobj>
p97
(dp98
g3
g4
sg5
I27
sg6
I27
sg7
Vblown
p99
sg9
F1.0
ssVCompiled <dobj>
p100
(dp101
g12
I9
sg13
I9
sg14
g21
sg16
VCompiled
p102
sg18
F1.0
ssV<subj> get
p103
(dp104
g12
I9
sg13
I9
sg14
g15
sg16
Vget
p105
sg18
F1.0
ssV<subj> give
p106
(dp107
g3
g31
sg5
I27
sg6
I27
sg7
Vgive
p108
sg9
F1.0
ssV<subj> keep
p109
(dp110
g12
I9
sg13
I9
sg14
g15
sg16
Vkeep
p111
sg18
F1.0
ssV<subj> forces
p112
(dp113
g3
g31
sg5
I24
sg6
I24
sg7
Vforces
p114
sg9
F1.0
ssV<subj> Called Ad
p115
(dp116
g12
I14
sg13
I14
sg14
g15
sg16
VCalled Ad
p117
sg18
F1.0
ssV<subj> was blown
p118
(dp119
g3
g31
sg5
I27
sg6
I27
sg7
Vwas blown
p120
sg9
F1.0
ssV<subj> capture
p121
(dp122
g12
I9
sg13
I9
sg14
g15
sg16
Vcapture
p123
sg18
F1.0
ssVtracks <dobj>
p124
(dp125
g12
I9
sg13
I9
sg14
g21
sg16
Vtracks
p126
sg18
F1.0
ssS'<subj> found presentation'
p127
(dp128
g56
g57
sg58
I4
sg59
I4
sg60
S'found presentation'
p129
sg62
F1.0
ssVgive <dobj>
p130
(dp131
g3
g4
sg5
I27
sg6
I27
sg7
Vgive
p132
sg9
F1.0
ssV<subj> posted
p133
(dp134
g3
g31
sg5
I27
sg6
I27
sg7
Vposted
p135
sg9
F1.0
ssV<subj> Called D
p136
(dp137
g12
I7
sg13
I7
sg14
g15
sg16
VCalled D
p138
sg18
F1.0
ssV<subj> Called
p139
(dp140
g12
I23
sg13
I23
sg14
g15
sg16
VCalled
p141
sg18
F1.0
ssS'sharing <dobj>'
p142
(dp143
g12
I0
sg13
I14
sg14
g21
sg16
S'sharing'
p144
sg18
F0.0
ssVget <dobj>
p145
(dp146
g12
I9
sg13
I9
sg14
g21
sg16
Vget
p147
sg18
F1.0
ssV<subj> Called L
p148
(dp149
g12
I7
sg13
I7
sg14
g15
sg16
VCalled L
p150
sg18
F1.0
ssV<subj> released
p151
(dp152
g12
I9
sg13
I9
sg14
g15
sg16
Vreleased
p153
sg18
F1.0
ssVread <dobj>
p154
(dp155
g3
g4
sg5
I27
sg6
I27
sg7
Vread
p156
sg9
F1.0
ssV<subj> imagined
p157
(dp158
g12
I9
sg13
I9
sg14
g15
sg16
Vimagined
p159
sg18
F1.0
ssV<subj> watched
p160
(dp161
g3
g31
sg5
I24
sg6
I24
sg7
Vwatched
p162
sg9
F1.0
ssS'<subj> sharing'
p163
(dp164
g12
I0
sg13
I14
sg14
g15
sg16
S'sharing'
p165
sg18
F0.0
ssV<subj> bring
p166
(dp167
g12
I9
sg13
I9
sg14
g15
sg16
Vbring
p168
sg18
F1.0
ssVcapture <dobj>
p169
(dp170
g12
I9
sg13
I9
sg14
g21
sg16
Vcapture
p171
sg18
F1.0
ssV<subj> Called Land
p172
(dp173
g12
I23
sg13
I23
sg14
g15
sg16
VCalled Land
p174
sg18
F1.0
ssV<subj> Compiled
p175
(dp176
g12
I9
sg13
I9
sg14
g15
sg16
VCompiled
p177
sg18
F1.0
ssS'found <dobj>'
p178
(dp179
g56
S'dobj'
p180
sg58
I4
sg59
I4
sg60
S'found'
p181
sg62
F1.0
ssV<subj> conveyed
p182
(dp183
g12
I9
sg13
I9
sg14
g15
sg16
Vconveyed
p184
sg18
F1.0
ssV<subj> read
p185
(dp186
g3
g31
sg5
I27
sg6
I27
sg7
Vread
p187
sg9
F1.0
ss.