(dp0
Vwatched <dobj>
p1
(dp2
S'subj_freq'
p3
I24
sS'freq'
p4
I24
sS'type'
p5
S'dobj'
p6
sS'display'
p7
Vwatched
p8
sS'prob'
p9
F1.0
ssV<subj> tracks
p10
(dp11
S'type'
p12
S'subj'
p13
sS'freq'
p14
I9
sS'subj_freq'
p15
I9
sS'display'
p16
Vtracks
p17
sS'prob'
p18
F1.0
ssVimagined <dobj>
p19
(dp20
g12
S'dobj'
p21
sg14
I9
sg15
I9
sg16
Vimagined
p22
sg18
F1.0
ssVbring <dobj>
p23
(dp24
g12
g21
sg14
I9
sg15
I9
sg16
Vbring
p25
sg18
F1.0
ssVfeatured <dobj>
p26
(dp27
g12
g21
sg14
I9
sg15
I9
sg16
Vfeatured
p28
sg18
F1.0
ssV<subj> posted people
p29
(dp30
g3
I28
sg4
I28
sg5
S'subj'
p31
sg7
Vposted people
p32
sg9
F1.0
ssV<subj> get seat
p33
(dp34
g12
g13
sg14
I9
sg15
I9
sg16
Vget seat
p35
sg18
F1.0
ssS"<subj> 'm"
p36
(dp37
S'subj_freq'
p38
I2
sS'freq'
p39
I2
sS'type'
p40
S'subj'
p41
sS'display'
p42
S"'m"
p43
sS'prob'
p44
F1.0
ssVdid <dobj>
p45
(dp46
g3
I24
sg4
I24
sg5
g6
sg7
Vdid
p47
sg9
F1.0
ssVkeep <dobj>
p48
(dp49
g12
g21
sg14
I9
sg15
I9
sg16
Vkeep
p50
sg18
F1.0
ssV<subj> featured
p51
(dp52
g12
g13
sg14
I9
sg15
I9
sg16
Vfeatured
p53
sg18
F1.0
ssS'<subj> found'
p54
(dp55
S'subj_freq'
p56
I4
sS'freq'
p57
I4
sS'type'
p58
S'subj'
p59
sS'display'
p60
S'found'
p61
sS'prob'
p62
F1.0
ssVconveyed <dobj>
p63
(dp64
g12
g21
sg14
I9
sg15
I9
sg16
Vconveyed
p65
sg18
F1.0
ssVCalled <dobj>
p66
(dp67
g12
g21
sg14
I23
sg15
I23
sg16
VCalled
p68
sg18
F1.0
ssVwait <dobj>
p69
(dp70
g12
g21
sg14
I7
sg15
I7
sg16
Vwait
p71
sg18
F1.0
ssVforces <dobj>
p72
(dp73
g3
I24
sg4
I24
sg5
g6
sg7
Vforces
p74
sg9
F1.0
ssV<subj> did
p75
(dp76
g3
I24
sg4
I24
sg5
g31
sg7
Vdid
p77
sg9
F1.0
ssV<subj> blown
p78
(dp79
g3
I28
sg4
I28
sg5
g31
sg7
Vblown
p80
sg9
F1.0
ssS"'m <dobj>"
p81
(dp82
g38
I2
sg39
I2
sg40
S'dobj'
p83
sg42
S"'m"
p84
sg44
F1.0
ssVposted <dobj>
p85
(dp86
g3
I28
sg4
I28
sg5
g6
sg7
Vposted
p87
sg9
F1.0
ssV<subj> Called L
p88
(dp89
g12
g13
sg14
I7
sg15
I7
sg16
VCalled L
p90
sg18
F1.0
ssVreleased <dobj>
p91
(dp92
g12
g21
sg14
I9
sg15
I9
sg16
Vreleased
p93
sg18
F1.0
ssV<subj> conveyed
p94
(dp95
g12
g13
sg14
I9
sg15
I9
sg16
Vconveyed
p96
sg18
F1.0
ssS'found <dobj>'
p97
(dp98
g56
I4
sg57
I4
sg58
S'dobj'
p99
sg60
S'found'
p100
sg62
F1.0
ssVblown <dobj>
p101
(dp102
g3
I28
sg4
I28
sg5
g6
sg7
Vblown
p103
sg9
F1.0
ssVCompiled <dobj>
p104
(dp105
g12
g21
sg14
I9
sg15
I9
sg16
VCompiled
p106
sg18
F1.0
ssV<subj> get
p107
(dp108
g12
g13
sg14
I9
sg15
I9
sg16
Vget
p109
sg18
F1.0
ssV<subj> give
p110
(dp111
g3
I27
sg4
I27
sg5
g31
sg7
Vgive
p112
sg9
F1.0
ssV<subj> keep
p113
(dp114
g12
g13
sg14
I9
sg15
I9
sg16
Vkeep
p115
sg18
F1.0
ssV<subj> forces
p116
(dp117
g3
I24
sg4
I24
sg5
g31
sg7
Vforces
p118
sg9
F1.0
ssV<subj> released
p119
(dp120
g12
g13
sg14
I9
sg15
I9
sg16
Vreleased
p121
sg18
F1.0
ssV<subj> was blown
p122
(dp123
g3
I28
sg4
I28
sg5
g31
sg7
Vwas blown
p124
sg9
F1.0
ssV<subj> capture
p125
(dp126
g12
g13
sg14
I9
sg15
I9
sg16
Vcapture
p127
sg18
F1.0
ssVtracks <dobj>
p128
(dp129
g12
g21
sg14
I9
sg15
I9
sg16
Vtracks
p130
sg18
F1.0
ssS'<subj> found presentation'
p131
(dp132
g56
I4
sg57
I4
sg58
g59
sg60
S'found presentation'
p133
sg62
F1.0
ssVgive <dobj>
p134
(dp135
g3
I27
sg4
I27
sg5
g6
sg7
Vgive
p136
sg9
F1.0
ssV<subj> posted
p137
(dp138
g3
I28
sg4
I28
sg5
g31
sg7
Vposted
p139
sg9
F1.0
ssV<subj> Called D
p140
(dp141
g12
g13
sg14
I7
sg15
I7
sg16
VCalled D
p142
sg18
F1.0
ssV<subj> Called
p143
(dp144
g12
g13
sg14
I23
sg15
I23
sg16
VCalled
p145
sg18
F1.0
ssS'sharing <dobj>'
p146
(dp147
g12
g21
sg14
I14
sg15
I0
sg16
S'sharing'
p148
sg18
F0.0
ssVget <dobj>
p149
(dp150
g12
g21
sg14
I9
sg15
I9
sg16
Vget
p151
sg18
F1.0
ssV<subj> wait
p152
(dp153
g12
g13
sg14
I7
sg15
I7
sg16
Vwait
p154
sg18
F1.0
ssV<subj> Called Ad
p155
(dp156
g12
g13
sg14
I14
sg15
I14
sg16
VCalled Ad
p157
sg18
F1.0
ssVread <dobj>
p158
(dp159
g3
I28
sg4
I28
sg5
g6
sg7
Vread
p160
sg9
F1.0
ssV<subj> imagined
p161
(dp162
g12
g13
sg14
I9
sg15
I9
sg16
Vimagined
p163
sg18
F1.0
ssV<subj> watched
p164
(dp165
g3
I24
sg4
I24
sg5
g31
sg7
Vwatched
p166
sg9
F1.0
ssS'<subj> sharing'
p167
(dp168
g12
g13
sg14
I14
sg15
I0
sg16
S'sharing'
p169
sg18
F0.0
ssV<subj> bring
p170
(dp171
g12
g13
sg14
I9
sg15
I9
sg16
Vbring
p172
sg18
F1.0
ssVcapture <dobj>
p173
(dp174
g12
g21
sg14
I9
sg15
I9
sg16
Vcapture
p175
sg18
F1.0
ssV<subj> Compiled
p176
(dp177
g12
g13
sg14
I9
sg15
I9
sg16
VCompiled
p178
sg18
F1.0
ssV<subj> imagined worlds
p179
(dp180
g12
g13
sg14
I9
sg15
I9
sg16
Vimagined worlds
p181
sg18
F1.0
ssV<subj> Called Land
p182
(dp183
g12
g13
sg14
I23
sg15
I23
sg16
VCalled Land
p184
sg18
F1.0
ssV<subj> read
p185
(dp186
g3
I28
sg4
I28
sg5
g31
sg7
Vread
p187
sg9
F1.0
ss.