(dp0
S'learning <dobj>'
p1
(dp2
S'type'
p3
S'dobj'
p4
sS'freq'
p5
I8
sS'subj_freq'
p6
I8
sS'display'
p7
S'learning'
p8
sS'prob'
p9
F1.0
ssVwatched <dobj>
p10
(dp11
S'subj_freq'
p12
I25
sS'freq'
p13
I25
sS'type'
p14
S'dobj'
p15
sS'display'
p16
Vwatched
p17
sS'prob'
p18
F1.0
ssV<subj> tracks
p19
(dp20
S'type'
p21
S'subj'
p22
sS'freq'
p23
I9
sS'subj_freq'
p24
I9
sS'display'
p25
Vtracks
p26
sS'prob'
p27
F1.0
ssVimagined <dobj>
p28
(dp29
g21
S'dobj'
p30
sg23
I9
sg24
I9
sg25
Vimagined
p31
sg27
F1.0
ssVbring <dobj>
p32
(dp33
g21
g30
sg23
I9
sg24
I9
sg25
Vbring
p34
sg27
F1.0
ssVfeatured <dobj>
p35
(dp36
g21
g30
sg23
I9
sg24
I9
sg25
Vfeatured
p37
sg27
F1.0
ssV<subj> posted people
p38
(dp39
g12
I34
sg13
I34
sg14
S'subj'
p40
sg16
Vposted people
p41
sg18
F1.0
ssV<subj> get seat
p42
(dp43
g21
g22
sg23
I9
sg24
I9
sg25
Vget seat
p44
sg27
F1.0
ssS"<subj> 'm"
p45
(dp46
S'subj_freq'
p47
I7
sS'freq'
p48
I7
sS'type'
p49
S'subj'
p50
sS'display'
p51
S"'m"
p52
sS'prob'
p53
F1.0
ssVdid <dobj>
p54
(dp55
g12
I25
sg13
I25
sg14
g15
sg16
Vdid
p56
sg18
F1.0
ssVkeep <dobj>
p57
(dp58
g21
g30
sg23
I9
sg24
I9
sg25
Vkeep
p59
sg27
F1.0
ssV<subj> featured
p60
(dp61
g21
g22
sg23
I9
sg24
I9
sg25
Vfeatured
p62
sg27
F1.0
ssS'<subj> found'
p63
(dp64
S'subj_freq'
p65
I4
sS'freq'
p66
I4
sS'type'
p67
S'subj'
p68
sS'display'
p69
S'found'
p70
sS'prob'
p71
F1.0
ssVconveyed <dobj>
p72
(dp73
g21
g30
sg23
I9
sg24
I9
sg25
Vconveyed
p74
sg27
F1.0
ssVCalled <dobj>
p75
(dp76
g21
g30
sg23
I23
sg24
I23
sg25
VCalled
p77
sg27
F1.0
ssVwait <dobj>
p78
(dp79
g21
g30
sg23
I7
sg24
I7
sg25
Vwait
p80
sg27
F1.0
ssVforces <dobj>
p81
(dp82
g12
I25
sg13
I25
sg14
g15
sg16
Vforces
p83
sg18
F1.0
ssV<subj> did
p84
(dp85
g12
I25
sg13
I25
sg14
g40
sg16
Vdid
p86
sg18
F1.0
ssV<subj> blown
p87
(dp88
g12
I34
sg13
I34
sg14
g40
sg16
Vblown
p89
sg18
F1.0
ssS"'m <dobj>"
p90
(dp91
g47
I7
sg48
I7
sg49
S'dobj'
p92
sg51
S"'m"
p93
sg53
F1.0
ssV<subj> keep
p94
(dp95
g21
g22
sg23
I9
sg24
I9
sg25
Vkeep
p96
sg27
F1.0
ssVposted <dobj>
p97
(dp98
g12
I34
sg13
I34
sg14
g15
sg16
Vposted
p99
sg18
F1.0
ssV<subj> Called L
p100
(dp101
g21
g22
sg23
I7
sg24
I7
sg25
VCalled L
p102
sg27
F1.0
ssVreleased <dobj>
p103
(dp104
g21
g30
sg23
I9
sg24
I9
sg25
Vreleased
p105
sg27
F1.0
ssS'found <dobj>'
p106
(dp107
g65
I4
sg66
I4
sg67
S'dobj'
p108
sg69
S'found'
p109
sg71
F1.0
ssVblown <dobj>
p110
(dp111
g12
I34
sg13
I34
sg14
g15
sg16
Vblown
p112
sg18
F1.0
ssVCompiled <dobj>
p113
(dp114
g21
g30
sg23
I9
sg24
I9
sg25
VCompiled
p115
sg27
F1.0
ssV<subj> get
p116
(dp117
g21
g22
sg23
I9
sg24
I9
sg25
Vget
p118
sg27
F1.0
ssV<subj> give
p119
(dp120
g12
I37
sg13
I37
sg14
g40
sg16
Vgive
p121
sg18
F1.0
ssV<subj> conveyed
p122
(dp123
g21
g22
sg23
I9
sg24
I9
sg25
Vconveyed
p124
sg27
F1.0
ssV<subj> forces
p125
(dp126
g12
I25
sg13
I25
sg14
g40
sg16
Vforces
p127
sg18
F1.0
ssV<subj> released
p128
(dp129
g21
g22
sg23
I9
sg24
I9
sg25
Vreleased
p130
sg27
F1.0
ssV<subj> was blown
p131
(dp132
g12
I34
sg13
I34
sg14
g40
sg16
Vwas blown
p133
sg18
F1.0
ssV<subj> capture
p134
(dp135
g21
g22
sg23
I9
sg24
I9
sg25
Vcapture
p136
sg27
F1.0
ssVtracks <dobj>
p137
(dp138
g21
g30
sg23
I9
sg24
I9
sg25
Vtracks
p139
sg27
F1.0
ssS'<subj> found presentation'
p140
(dp141
g65
I4
sg66
I4
sg67
g68
sg69
S'found presentation'
p142
sg71
F1.0
ssS'<subj> think'
p143
(dp144
S'type'
p145
S'subj'
p146
sS'freq'
p147
I4
sS'subj_freq'
p148
I4
sS'display'
p149
S'think'
p150
sS'prob'
p151
F1.0
ssVgive <dobj>
p152
(dp153
g12
I37
sg13
I37
sg14
g15
sg16
Vgive
p154
sg18
F1.0
ssS'think <dobj>'
p155
(dp156
g145
S'dobj'
p157
sg147
I4
sg148
I4
sg149
S'think'
p158
sg151
F1.0
ssV<subj> posted
p159
(dp160
g12
I34
sg13
I34
sg14
g40
sg16
Vposted
p161
sg18
F1.0
ssV<subj> Called D
p162
(dp163
g21
g22
sg23
I7
sg24
I7
sg25
VCalled D
p164
sg27
F1.0
ssV<subj> Called
p165
(dp166
g21
g22
sg23
I23
sg24
I23
sg25
VCalled
p167
sg27
F1.0
ssS'sharing <dobj>'
p168
(dp169
g21
g30
sg23
I14
sg24
I0
sg25
S'sharing'
p170
sg27
F0.0
ssS'<subj> learning'
p171
(dp172
g3
S'subj'
p173
sg5
I8
sg6
I8
sg7
S'learning'
p174
sg9
F1.0
ssVget <dobj>
p175
(dp176
g21
g30
sg23
I9
sg24
I9
sg25
Vget
p177
sg27
F1.0
ssV<subj> wait
p178
(dp179
g21
g22
sg23
I7
sg24
I7
sg25
Vwait
p180
sg27
F1.0
ssV<subj> Called Ad
p181
(dp182
g21
g22
sg23
I14
sg24
I14
sg25
VCalled Ad
p183
sg27
F1.0
ssVread <dobj>
p184
(dp185
g12
I34
sg13
I34
sg14
g15
sg16
Vread
p186
sg18
F1.0
ssV<subj> imagined
p187
(dp188
g21
g22
sg23
I9
sg24
I9
sg25
Vimagined
p189
sg27
F1.0
ssV<subj> watched
p190
(dp191
g12
I25
sg13
I25
sg14
g40
sg16
Vwatched
p192
sg18
F1.0
ssS'<subj> sharing'
p193
(dp194
g21
g22
sg23
I14
sg24
I0
sg25
S'sharing'
p195
sg27
F0.0
ssV<subj> bring
p196
(dp197
g21
g22
sg23
I9
sg24
I9
sg25
Vbring
p198
sg27
F1.0
ssVcapture <dobj>
p199
(dp200
g21
g30
sg23
I9
sg24
I9
sg25
Vcapture
p201
sg27
F1.0
ssV<subj> Compiled
p202
(dp203
g21
g22
sg23
I9
sg24
I9
sg25
VCompiled
p204
sg27
F1.0
ssV<subj> imagined worlds
p205
(dp206
g21
g22
sg23
I9
sg24
I9
sg25
Vimagined worlds
p207
sg27
F1.0
ssV<subj> Called Land
p208
(dp209
g21
g22
sg23
I23
sg24
I23
sg25
VCalled Land
p210
sg27
F1.0
ssV<subj> read
p211
(dp212
g12
I34
sg13
I34
sg14
g40
sg16
Vread
p213
sg18
F1.0
ss.